target datalayout = "e-m:e-p270:32:32-p271:32:32-p272:64:64-i64:64-i128:128-f80:128-n8:16:32:64-S128"
target triple = "x86_64-pc-linux-gnu"

%struct.AVFilterContext = type { ptr, ptr, ptr, ptr, ptr, i32, ptr, ptr, i32, ptr, ptr, i32, i32, ptr, ptr, ptr, ptr, i32, ptr, i32, i32 }
%struct.UnsharpContext = type { ptr, i32, i32, i32, i32, i32, i32, float, float, float, %struct.UnsharpFilterParam, %struct.UnsharpFilterParam, %struct.UnsharpFilterParam, i32, i32, i32, i32, i32, i32, ptr }
%struct.UnsharpFilterParam = type { i32, i32, i32, i32, i32, i32, i32, ptr, ptr }
%struct.AVFilterLink = type { ptr, ptr, ptr, ptr, i32, i32, i32, i32, %struct.AVRational, i32, i32, i32, %struct.AVChannelLayout, %struct.AVRational, ptr, i32, %struct.AVFilterFormatsConfig, %struct.AVFilterFormatsConfig }
%struct.AVChannelLayout = type { i32, i32, %union.anon.1, ptr }
%union.anon.1 = type { i64 }
%struct.AVRational = type { i32, i32 }
%struct.AVFilterFormatsConfig = type { ptr, ptr, ptr, ptr, ptr }
%struct.AVPixFmtDescriptor = type { ptr, i8, i8, i8, i64, [4 x %struct.AVComponentDescriptor], ptr }
%struct.AVComponentDescriptor = type { i32, i32, i32, i32, i32 }

@.str.3 = private unnamed_addr constant [5 x i8] c"luma\00", align 1
@.str.4 = private unnamed_addr constant [7 x i8] c"chroma\00", align 1

; Function Attrs: nounwind uwtable
define internal i32 @config_input(ptr noundef %0) #1 {
  %2 = alloca i32, align 4
  %3 = alloca ptr, align 8
  %4 = alloca ptr, align 8
  %5 = alloca ptr, align 8
  %6 = alloca i32, align 4
  %7 = alloca i32, align 4
  store ptr %0, ptr %3, align 8, !tbaa !40
  call void @llvm.lifetime.start.p0(i64 8, ptr %4) #8
  %8 = load ptr, ptr %3, align 8, !tbaa !40
  %9 = getelementptr inbounds nuw %struct.AVFilterLink, ptr %8, i32 0, i32 2
  %10 = load ptr, ptr %9, align 8, !tbaa !44
  %11 = getelementptr inbounds nuw %struct.AVFilterContext, ptr %10, i32 0, i32 9
  %12 = load ptr, ptr %11, align 8, !tbaa !9
  store ptr %12, ptr %4, align 8, !tbaa !22
  call void @llvm.lifetime.start.p0(i64 8, ptr %5) #8
  %13 = load ptr, ptr %3, align 8, !tbaa !40
  %14 = getelementptr inbounds nuw %struct.AVFilterLink, ptr %13, i32 0, i32 5
  %15 = load i32, ptr %14, align 4, !tbaa !55
  %16 = call ptr @av_pix_fmt_desc_get(i32 noundef %15)
  store ptr %16, ptr %5, align 8, !tbaa !56
  call void @llvm.lifetime.start.p0(i64 4, ptr %6) #8
  %17 = load ptr, ptr %5, align 8, !tbaa !56
  %18 = getelementptr inbounds nuw %struct.AVPixFmtDescriptor, ptr %17, i32 0, i32 1
  %19 = load i8, ptr %18, align 8, !tbaa !58
  %20 = zext i8 %19 to i32
  %21 = load ptr, ptr %4, align 8, !tbaa !22
  %22 = getelementptr inbounds nuw %struct.UnsharpContext, ptr %21, i32 0, i32 15
  store i32 %20, ptr %22, align 8, !tbaa !61
  %23 = load ptr, ptr %5, align 8, !tbaa !56
  %24 = getelementptr inbounds nuw %struct.AVPixFmtDescriptor, ptr %23, i32 0, i32 2
  %25 = load i8, ptr %24, align 1, !tbaa !62
  %26 = zext i8 %25 to i32
  %27 = load ptr, ptr %4, align 8, !tbaa !22
  %28 = getelementptr inbounds nuw %struct.UnsharpContext, ptr %27, i32 0, i32 13
  store i32 %26, ptr %28, align 8, !tbaa !63
  %29 = load ptr, ptr %5, align 8, !tbaa !56
  %30 = getelementptr inbounds nuw %struct.AVPixFmtDescriptor, ptr %29, i32 0, i32 3
  %31 = load i8, ptr %30, align 2, !tbaa !64
  %32 = zext i8 %31 to i32
  %33 = load ptr, ptr %4, align 8, !tbaa !22
  %34 = getelementptr inbounds nuw %struct.UnsharpContext, ptr %33, i32 0, i32 14
  store i32 %32, ptr %34, align 4, !tbaa !65
  %35 = load ptr, ptr %5, align 8, !tbaa !56
  %36 = getelementptr inbounds nuw %struct.AVPixFmtDescriptor, ptr %35, i32 0, i32 5
  %37 = getelementptr inbounds [4 x %struct.AVComponentDescriptor], ptr %36, i64 0, i64 0
  %38 = getelementptr inbounds nuw %struct.AVComponentDescriptor, ptr %37, i32 0, i32 4
  %39 = load i32, ptr %38, align 8, !tbaa !66
  %40 = load ptr, ptr %4, align 8, !tbaa !22
  %41 = getelementptr inbounds nuw %struct.UnsharpContext, ptr %40, i32 0, i32 16
  store i32 %39, ptr %41, align 4, !tbaa !68
  %42 = load ptr, ptr %4, align 8, !tbaa !22
  %43 = getelementptr inbounds nuw %struct.UnsharpContext, ptr %42, i32 0, i32 16
  %44 = load i32, ptr %43, align 4, !tbaa !68
  %45 = icmp sgt i32 %44, 8
  %46 = select i1 %45, i32 2, i32 1
  %47 = load ptr, ptr %4, align 8, !tbaa !22
  %48 = getelementptr inbounds nuw %struct.UnsharpContext, ptr %47, i32 0, i32 17
  store i32 %46, ptr %48, align 8, !tbaa !69
  %49 = load ptr, ptr %4, align 8, !tbaa !22
  %50 = getelementptr inbounds nuw %struct.UnsharpContext, ptr %49, i32 0, i32 16
  %51 = load i32, ptr %50, align 4, !tbaa !68
  %52 = icmp sgt i32 %51, 8
  %53 = select i1 %52, ptr @unsharp_slice_16, ptr @unsharp_slice_8
  %54 = load ptr, ptr %4, align 8, !tbaa !22
  %55 = getelementptr inbounds nuw %struct.UnsharpContext, ptr %54, i32 0, i32 19
  store ptr %53, ptr %55, align 8, !tbaa !70
  %56 = load ptr, ptr %3, align 8, !tbaa !40
  %57 = getelementptr inbounds nuw %struct.AVFilterLink, ptr %56, i32 0, i32 2
  %58 = load ptr, ptr %57, align 8, !tbaa !44
  %59 = call i32 @ff_filter_get_nb_threads(ptr noundef %58) #9
  %60 = load ptr, ptr %3, align 8, !tbaa !40
  %61 = getelementptr inbounds nuw %struct.AVFilterLink, ptr %60, i32 0, i32 7
  %62 = load i32, ptr %61, align 4, !tbaa !54
  %63 = load ptr, ptr %4, align 8, !tbaa !22
  %64 = getelementptr inbounds nuw %struct.UnsharpContext, ptr %63, i32 0, i32 10
  %65 = getelementptr inbounds nuw %struct.UnsharpFilterParam, ptr %64, i32 0, i32 4
  %66 = load i32, ptr %65, align 8, !tbaa !71
  %67 = mul nsw i32 4, %66
  %68 = sdiv i32 %62, %67
  %69 = icmp sgt i32 %59, %68
  br i1 %69, label %70, label %80

70:                                               ; preds = %1
  %71 = load ptr, ptr %3, align 8, !tbaa !40
  %72 = getelementptr inbounds nuw %struct.AVFilterLink, ptr %71, i32 0, i32 7
  %73 = load i32, ptr %72, align 4, !tbaa !54
  %74 = load ptr, ptr %4, align 8, !tbaa !22
  %75 = getelementptr inbounds nuw %struct.UnsharpContext, ptr %74, i32 0, i32 10
  %76 = getelementptr inbounds nuw %struct.UnsharpFilterParam, ptr %75, i32 0, i32 4
  %77 = load i32, ptr %76, align 8, !tbaa !71
  %78 = mul nsw i32 4, %77
  %79 = sdiv i32 %73, %78
  br label %85

80:                                               ; preds = %1
  %81 = load ptr, ptr %3, align 8, !tbaa !40
  %82 = getelementptr inbounds nuw %struct.AVFilterLink, ptr %81, i32 0, i32 2
  %83 = load ptr, ptr %82, align 8, !tbaa !44
  %84 = call i32 @ff_filter_get_nb_threads(ptr noundef %83) #9
  br label %85

85:                                               ; preds = %80, %70
  %86 = phi i32 [ %79, %70 ], [ %84, %80 ]
  %87 = load ptr, ptr %4, align 8, !tbaa !22
  %88 = getelementptr inbounds nuw %struct.UnsharpContext, ptr %87, i32 0, i32 18
  store i32 %86, ptr %88, align 4, !tbaa !39
  %89 = load ptr, ptr %3, align 8, !tbaa !40
  %90 = getelementptr inbounds nuw %struct.AVFilterLink, ptr %89, i32 0, i32 2
  %91 = load ptr, ptr %90, align 8, !tbaa !44
  %92 = load ptr, ptr %4, align 8, !tbaa !22
  %93 = getelementptr inbounds nuw %struct.UnsharpContext, ptr %92, i32 0, i32 10
  %94 = load ptr, ptr %3, align 8, !tbaa !40
  %95 = getelementptr inbounds nuw %struct.AVFilterLink, ptr %94, i32 0, i32 6
  %96 = load i32, ptr %95, align 8, !tbaa !53
  %97 = call i32 @init_filter_param(ptr noundef %91, ptr noundef %93, ptr noundef @.str.3, i32 noundef %96)
  store i32 %97, ptr %6, align 4, !tbaa !32
  %98 = load i32, ptr %6, align 4, !tbaa !32
  %99 = icmp slt i32 %98, 0
  br i1 %99, label %100, label %102

100:                                              ; preds = %85
  %101 = load i32, ptr %6, align 4, !tbaa !32
  store i32 %101, ptr %2, align 4
  store i32 1, ptr %7, align 4
  br label %144

102:                                              ; preds = %85
  %103 = load ptr, ptr %3, align 8, !tbaa !40
  %104 = getelementptr inbounds nuw %struct.AVFilterLink, ptr %103, i32 0, i32 2
  %105 = load ptr, ptr %104, align 8, !tbaa !44
  %106 = load ptr, ptr %4, align 8, !tbaa !22
  %107 = getelementptr inbounds nuw %struct.UnsharpContext, ptr %106, i32 0, i32 11
  %108 = load ptr, ptr %4, align 8, !tbaa !22
  %109 = getelementptr inbounds nuw %struct.UnsharpContext, ptr %108, i32 0, i32 13
  %110 = load i32, ptr %109, align 8, !tbaa !63
  %111 = call i1 @llvm.is.constant.i32(i32 %110)
  br i1 %111, label %122, label %112

112:                                              ; preds = %102
  %113 = load ptr, ptr %3, align 8, !tbaa !40
  %114 = getelementptr inbounds nuw %struct.AVFilterLink, ptr %113, i32 0, i32 6
  %115 = load i32, ptr %114, align 8, !tbaa !53
  %116 = sub nsw i32 0, %115
  %117 = load ptr, ptr %4, align 8, !tbaa !22
  %118 = getelementptr inbounds nuw %struct.UnsharpContext, ptr %117, i32 0, i32 13
  %119 = load i32, ptr %118, align 8, !tbaa !63
  %120 = ashr i32 %116, %119
  %121 = sub nsw i32 0, %120
  br label %136

122:                                              ; preds = %102
  %123 = load ptr, ptr %3, align 8, !tbaa !40
  %124 = getelementptr inbounds nuw %struct.AVFilterLink, ptr %123, i32 0, i32 6
  %125 = load i32, ptr %124, align 8, !tbaa !53
  %126 = load ptr, ptr %4, align 8, !tbaa !22
  %127 = getelementptr inbounds nuw %struct.UnsharpContext, ptr %126, i32 0, i32 13
  %128 = load i32, ptr %127, align 8, !tbaa !63
  %129 = shl i32 1, %128
  %130 = add nsw i32 %125, %129
  %131 = sub nsw i32 %130, 1
  %132 = load ptr, ptr %4, align 8, !tbaa !22
  %133 = getelementptr inbounds nuw %struct.UnsharpContext, ptr %132, i32 0, i32 13
  %134 = load i32, ptr %133, align 8, !tbaa !63
  %135 = ashr i32 %131, %134
  br label %136

136:                                              ; preds = %122, %112
  %137 = phi i32 [ %121, %112 ], [ %135, %122 ]
  %138 = call i32 @init_filter_param(ptr noundef %105, ptr noundef %107, ptr noundef @.str.4, i32 noundef %137)
  store i32 %138, ptr %6, align 4, !tbaa !32
  %139 = load i32, ptr %6, align 4, !tbaa !32
  %140 = icmp slt i32 %139, 0
  br i1 %140, label %141, label %143

141:                                              ; preds = %136
  %142 = load i32, ptr %6, align 4, !tbaa !32
  store i32 %142, ptr %2, align 4
  store i32 1, ptr %7, align 4
  br label %144

143:                                              ; preds = %136
  store i32 0, ptr %2, align 4
  store i32 1, ptr %7, align 4
  br label %144

144:                                              ; preds = %143, %141, %100
  call void @llvm.lifetime.end.p0(i64 4, ptr %6) #8
  call void @llvm.lifetime.end.p0(i64 8, ptr %5) #8
  call void @llvm.lifetime.end.p0(i64 8, ptr %4) #8
  %145 = load i32, ptr %2, align 4
  ret i32 %145
}