; Function Attrs: nounwind uwtable
define internal range(i32 -22, 1) i32 @config_input(ptr noundef readonly captures(none) %0) #1 {
  %2 = getelementptr inbounds nuw i8, ptr %0, i64 16
  %3 = load ptr, ptr %2, align 8, !tbaa !37
  %4 = getelementptr inbounds nuw i8, ptr %3, i64 72
  %5 = load ptr, ptr %4, align 8, !tbaa !4
  %6 = getelementptr inbounds nuw i8, ptr %0, i64 36
  %7 = load i32, ptr %6, align 4, !tbaa !70
  %8 = tail call ptr @av_pix_fmt_desc_get(i32 noundef %7) #7
  %9 = getelementptr inbounds nuw i8, ptr %8, i64 8
  %10 = load i8, ptr %9, align 8, !tbaa !71
  %11 = zext i8 %10 to i32
  %12 = getelementptr inbounds nuw i8, ptr %5, i64 200
  store i32 %11, ptr %12, align 8, !tbaa !57
  %13 = getelementptr inbounds nuw i8, ptr %8, i64 9
  %14 = load i8, ptr %13, align 1, !tbaa !74
  %15 = zext i8 %14 to i32
  %16 = getelementptr inbounds nuw i8, ptr %5, i64 192
  store i32 %15, ptr %16, align 8, !tbaa !53
  %17 = getelementptr inbounds nuw i8, ptr %8, i64 10
  %18 = load i8, ptr %17, align 2, !tbaa !75
  %19 = zext i8 %18 to i32
  %20 = getelementptr inbounds nuw i8, ptr %5, i64 196
  store i32 %19, ptr %20, align 4, !tbaa !54
  %21 = getelementptr inbounds nuw i8, ptr %8, i64 40
  %22 = load i32, ptr %21, align 8, !tbaa !76
  %23 = getelementptr inbounds nuw i8, ptr %5, i64 204
  store i32 %22, ptr %23, align 4, !tbaa !78
  %24 = icmp sgt i32 %22, 8
  %25 = select i1 %24, i32 2, i32 1
  %26 = getelementptr inbounds nuw i8, ptr %5, i64 208
  store i32 %25, ptr %26, align 8, !tbaa !79
  %27 = select i1 %24, ptr @unsharp_slice_16, ptr @unsharp_slice_8
  %28 = getelementptr inbounds nuw i8, ptr %5, i64 216
  store ptr %27, ptr %28, align 8, !tbaa !67
  %29 = load ptr, ptr %2, align 8, !tbaa !37
  %30 = tail call i32 @ff_filter_get_nb_threads(ptr noundef %29) #8
  %31 = getelementptr inbounds nuw i8, ptr %0, i64 44
  %32 = load i32, ptr %31, align 4, !tbaa !50
  %33 = getelementptr inbounds nuw i8, ptr %5, i64 48
  %34 = getelementptr inbounds nuw i8, ptr %5, i64 64
  %35 = load i32, ptr %34, align 8, !tbaa !80
  %36 = shl nsw i32 %35, 2
  %37 = sdiv i32 %32, %36
  %. = tail call i32 @llvm.smin.i32(i32 %30, i32 %37)
  %38 = getelementptr inbounds nuw i8, ptr %5, i64 212
  store i32 %., ptr %38, align 4, !tbaa !34
  %39 = getelementptr inbounds nuw i8, ptr %0, i64 40
  %40 = load i32, ptr %39, align 8, !tbaa !49
  %41 = tail call fastcc i32 @init_filter_param(ptr noundef %29, ptr noundef nonnull %33, ptr noundef nonnull @.str.3, i32 noundef %40)
  %42 = icmp slt i32 %41, 0
  br i1 %42, label %52, label %43

43:                                               ; preds = %1
  %44 = load ptr, ptr %2, align 8, !tbaa !37
  %45 = getelementptr inbounds nuw i8, ptr %5, i64 96
  %46 = load i32, ptr %39, align 8, !tbaa !49
  %47 = sub nsw i32 0, %46
  %48 = load i32, ptr %16, align 8, !tbaa !53
  %49 = ashr i32 %47, %48
  %50 = sub nsw i32 0, %49
  %51 = tail call fastcc i32 @init_filter_param(ptr noundef %44, ptr noundef nonnull %45, ptr noundef nonnull @.str.4, i32 noundef %50)
  br label %52

52:                                               ; preds = %43, %1
  %.0 = phi i32 [ %41, %1 ], [ %51, %43 ]
  ret i32 %.0
}